target datalayout = "e-m:e-p270:32:32-p271:32:32-p272:64:64-i64:64-i128:128-f80:128-n8:16:32:64-S128"
target triple = "x86_64-pc-linux-gnu"

%struct.strbuf = type { i64, i64, ptr }
%struct.config_source = type { ptr, %union.anon, i32, ptr, ptr, i32, i32, i32, i64, %struct.strbuf, %struct.strbuf, i8, ptr, ptr, ptr }
%union.anon = type { %struct.config_buf }
%struct.config_buf = type { ptr, i64, i64 }

@.str.37 = private unnamed_addr constant [9 x i8] c"config.c\00", align 1
@.str.197 = private unnamed_addr constant [46 x i8] c"config_buf can only ungetc the same character\00", align 1

; Function Attrs: nounwind uwtable
define internal i32 @config_buf_ungetc(i32 noundef %0, ptr noundef %1) #0 {
  %3 = alloca i32, align 4
  %4 = alloca i32, align 4
  %5 = alloca ptr, align 8
  store i32 %0, ptr %4, align 4, !tbaa !13
  store ptr %1, ptr %5, align 8, !tbaa !61
  %6 = load ptr, ptr %5, align 8, !tbaa !61
  %7 = getelementptr inbounds nuw %struct.config_source, ptr %6, i32 0, i32 1
  %8 = getelementptr inbounds nuw %struct.config_buf, ptr %7, i32 0, i32 2
  %9 = load i64, ptr %8, align 8, !tbaa !9
  %10 = icmp ugt i64 %9, 0
  br i1 %10, label %11, label %33

11:                                               ; preds = %2
  %12 = load ptr, ptr %5, align 8, !tbaa !61
  %13 = getelementptr inbounds nuw %struct.config_source, ptr %12, i32 0, i32 1
  %14 = getelementptr inbounds nuw %struct.config_buf, ptr %13, i32 0, i32 2
  %15 = load i64, ptr %14, align 8, !tbaa !9
  %16 = add i64 %15, -1
  store i64 %16, ptr %14, align 8, !tbaa !9
  %17 = load ptr, ptr %5, align 8, !tbaa !61
  %18 = getelementptr inbounds nuw %struct.config_source, ptr %17, i32 0, i32 1
  %19 = getelementptr inbounds nuw %struct.config_buf, ptr %18, i32 0, i32 0
  %20 = load ptr, ptr %19, align 8, !tbaa !9
  %21 = load ptr, ptr %5, align 8, !tbaa !61
  %22 = getelementptr inbounds nuw %struct.config_source, ptr %21, i32 0, i32 1
  %23 = getelementptr inbounds nuw %struct.config_buf, ptr %22, i32 0, i32 2
  %24 = load i64, ptr %23, align 8, !tbaa !9
  %25 = getelementptr inbounds nuw i8, ptr %20, i64 %24
  %26 = load i8, ptr %25, align 1, !tbaa !9
  %27 = sext i8 %26 to i32
  %28 = load i32, ptr %4, align 4, !tbaa !13
  %29 = icmp ne i32 %27, %28
  br i1 %29, label %30, label %31

30:                                               ; preds = %11
  call void (ptr, i32, ptr, ...) @BUG_fl(ptr noundef @.str.37, i32 noundef 115, ptr noundef @.str.197) #15
  unreachable

31:                                               ; preds = %11
  %32 = load i32, ptr %4, align 4, !tbaa !13
  store i32 %32, ptr %3, align 4
  br label %34

33:                                               ; preds = %2
  store i32 -1, ptr %3, align 4
  br label %34

34:                                               ; preds = %33, %31
  %35 = load i32, ptr %3, align 4
  ret i32 %35
}