; Function Attrs: nounwind uwtable
define internal range(i32 -128, 128) i32 @config_buf_ungetc(i32 noundef %0, ptr noundef captures(none) %1) #0 {
  %3 = getelementptr inbounds nuw i8, ptr %1, i64 24
  %4 = load i64, ptr %3, align 8, !tbaa !4
  %.not = icmp eq i64 %4, 0
  br i1 %.not, label %13, label %5

5:                                                ; preds = %2
  %6 = getelementptr inbounds nuw i8, ptr %1, i64 8
  %7 = add i64 %4, -1
  store i64 %7, ptr %3, align 8, !tbaa !4
  %8 = load ptr, ptr %6, align 8, !tbaa !4
  %9 = getelementptr inbounds nuw i8, ptr %8, i64 %7
  %10 = load i8, ptr %9, align 1, !tbaa !4
  %11 = sext i8 %10 to i32
  %.not8 = icmp eq i32 %0, %11
  br i1 %.not8, label %13, label %12

12:                                               ; preds = %5
  tail call void (ptr, i32, ptr, ...) @BUG_fl(ptr noundef nonnull @.str.37, i32 noundef 115, ptr noundef nonnull @.str.197) #31
  unreachable

13:                                               ; preds = %2, %5
  %.0 = phi i32 [ %0, %5 ], [ -1, %2 ]
  ret i32 %.0
}